target datalayout = "e-m:e-p270:32:32-p271:32:32-p272:64:64-i64:64-i128:128-f80:128-n8:16:32:64-S128"
target triple = "x86_64-unknown-linux-gnu"

%class.symbol = type { ptr }
%class.trail = type { ptr }
%"class.array::solver" = type { %"class.euf::th_euf_solver.base", %class.array_util, %"struct.array::solver::stats", %class.scoped_ptr_vector, %class.ast2ast_trailmap, %class.ast2ast_trailmap.12, %class.obj_map.23, %class.union_find, %"struct.array::solver::axiom_record::hash", %"struct.array::solver::axiom_record::eq", %class.hashtable, %class.svector.30, i32, i32, i8, %class.scoped_ptr, %class.ptr_vector, %class.ptr_vector.32, %class.svector.34, %class.obj_map.36, %class.ptr_vector, %class.ptr_vector.41 }
%"class.euf::th_euf_solver.base" = type <{ %"class.euf::th_solver", ptr, %class.ptr_vector, %class.svector.1, i32 }>
%"class.euf::th_solver" = type { %"class.sat::extension", %"class.euf::th_model_builder", %"class.euf::th_decompile", %"class.euf::th_internalizer", ptr }
%"class.sat::extension" = type { ptr, i8, i32, %class.symbol, ptr }
%"class.euf::th_model_builder" = type { ptr }
%"class.euf::th_decompile" = type { ptr }
%"class.euf::th_internalizer" = type { ptr, %class.ptr_vector, %class.svector }
%class.svector = type { %class.vector.0 }
%class.vector.0 = type { ptr }
%class.svector.1 = type { %class.vector.2 }
%class.vector.2 = type { ptr }
%class.array_util = type { %class.array_recognizers, ptr }
%class.array_recognizers = type { i32 }
%"struct.array::solver::stats" = type { i32, i32, i32, i32, i32, i32, i32, i32, i32, i32, i32, i32, i32, i32 }
%class.scoped_ptr_vector = type { %class.ptr_vector.3 }
%class.ptr_vector.3 = type { %class.vector.4 }
%class.vector.4 = type { ptr }
%class.ast2ast_trailmap = type { %class.ref_vector, %class.ref_vector.7, %class.obj_map }
%class.ref_vector = type { %class.ref_vector_core }
%class.ref_vector_core = type { %class.ref_manager_wrapper, %class.ptr_vector.5 }
%class.ref_manager_wrapper = type { ptr }
%class.ptr_vector.5 = type { %class.vector.6 }
%class.vector.6 = type { ptr }
%class.ref_vector.7 = type { %class.ref_vector_core.8 }
%class.ref_vector_core.8 = type { %class.ref_manager_wrapper.9, %class.ptr_vector.10 }
%class.ref_manager_wrapper.9 = type { ptr }
%class.ptr_vector.10 = type { %class.vector.11 }
%class.vector.11 = type { ptr }
%class.obj_map = type { %class.core_hashtable }
%class.core_hashtable = type <{ ptr, i32, i32, i32, [4 x i8] }>
%class.ast2ast_trailmap.12 = type { %class.ref_vector, %class.ref_vector.13, %class.obj_map.18 }
%class.ref_vector.13 = type { %class.ref_vector_core.14 }
%class.ref_vector_core.14 = type { %class.ref_manager_wrapper.15, %class.ptr_vector.16 }
%class.ref_manager_wrapper.15 = type { ptr }
%class.ptr_vector.16 = type { %class.vector.17 }
%class.vector.17 = type { ptr }
%class.obj_map.18 = type { %class.core_hashtable.19 }
%class.core_hashtable.19 = type <{ ptr, i32, i32, i32, [4 x i8] }>
%class.obj_map.23 = type { %class.core_hashtable.24 }
%class.core_hashtable.24 = type <{ ptr, i32, i32, i32, [4 x i8] }>
%class.union_find = type { ptr, ptr, %class.svector.1, %class.svector.1, %class.svector.1, %"class.union_find<array::solver, euf::solver>::mk_var_trail" }
%"class.union_find<array::solver, euf::solver>::mk_var_trail" = type { %class.trail, ptr }
%"struct.array::solver::axiom_record::hash" = type { ptr }
%"struct.array::solver::axiom_record::eq" = type { ptr }
%class.hashtable = type { %class.core_hashtable.base.29, [4 x i8] }
%class.core_hashtable.base.29 = type <{ %"struct.array::solver::axiom_record::hash", %"struct.array::solver::axiom_record::eq", ptr, i32, i32, i32 }>
%class.svector.30 = type { %class.vector.31 }
%class.vector.31 = type { ptr }
%class.scoped_ptr = type { ptr }
%class.ptr_vector.32 = type { %class.vector.33 }
%class.vector.33 = type { ptr }
%class.svector.34 = type { %class.vector.35 }
%class.vector.35 = type { ptr }
%class.obj_map.36 = type { %class.core_hashtable.37 }
%class.core_hashtable.37 = type <{ ptr, i32, i32, i32, [4 x i8] }>
%class.ptr_vector = type { %class.vector }
%class.vector = type { ptr }
%class.ptr_vector.41 = type { %class.vector.42 }
%class.vector.42 = type { ptr }
%"struct.array::solver::axiom_record" = type { i32, i32, ptr, ptr }
%"class.euf::justification" = type { i32, %union.anon.71, %union.anon.72 }
%union.anon.71 = type { ptr }
%union.anon.72 = type { ptr }
%"class.euf::enode" = type { ptr, i8, i8, i8, i8, i8, i8, i8, i8, i8, i32, i32, i32, i32, i32, i32, %class.ptr_vector, ptr, ptr, ptr, ptr, %class.id_var_list, %"class.euf::justification", %"class.euf::justification", i32, i8, %class.approx_set, %class.approx_set, [0 x ptr] }
%class.id_var_list = type { i32, ptr }
%class.approx_set = type { %class.approx_set_tpl.224 }
%class.approx_set_tpl.224 = type { i64 }
%class.app = type { %class.expr, ptr, i32, [0 x ptr] }
%class.expr = type { %class.ast }
%class.ast = type { i32, i24, i32, i32 }
%class.decl = type { %class.ast, %class.symbol, ptr }
%class.decl_info = type <{ i32, i32, %class.vector.260, i8, [7 x i8] }>
%class.vector.260 = type { ptr }

; Function Attrs: mustprogress nounwind uwtable
define linkonce_odr hidden noundef zeroext i1 @_ZNK9decl_info10is_decl_ofEii(ptr noundef nonnull align 8 dereferenceable(17) %this, i32 noundef %fid, i32 noundef %k) #4 comdat align 2 {
entry:
  %this.addr = alloca ptr, align 8
  %fid.addr = alloca i32, align 4
  %k.addr = alloca i32, align 4
  store ptr %this, ptr %this.addr, align 8
  store i32 %fid, ptr %fid.addr, align 4
  store i32 %k, ptr %k.addr, align 4
  %this1 = load ptr, ptr %this.addr, align 8
  %m_family_id = getelementptr inbounds %class.decl_info, ptr %this1, i32 0, i32 0
  %0 = load i32, ptr %m_family_id, align 8
  %1 = load i32, ptr %fid.addr, align 4
  %cmp = icmp eq i32 %0, %1
  br i1 %cmp, label %land.rhs, label %land.end

land.rhs:                                         ; preds = %entry
  %2 = load i32, ptr %k.addr, align 4
  %m_kind = getelementptr inbounds %class.decl_info, ptr %this1, i32 0, i32 1
  %3 = load i32, ptr %m_kind, align 4
  %cmp2 = icmp eq i32 %2, %3
  br label %land.end

land.end:                                         ; preds = %land.rhs, %entry
  %4 = phi i1 [ false, %entry ], [ %cmp2, %land.rhs ]
  ret i1 %4
}

; Function Attrs: mustprogress uwtable
define linkonce_odr hidden noundef zeroext i1 @_ZNK4decl10is_decl_ofEii(ptr noundef nonnull align 8 dereferenceable(32) %this, i32 noundef %fid, i32 noundef %k) #5 comdat align 2 {
entry:
  %this.addr = alloca ptr, align 8
  %fid.addr = alloca i32, align 4
  %k.addr = alloca i32, align 4
  store ptr %this, ptr %this.addr, align 8
  store i32 %fid, ptr %fid.addr, align 4
  store i32 %k, ptr %k.addr, align 4
  %this1 = load ptr, ptr %this.addr, align 8
  %m_info = getelementptr inbounds %class.decl, ptr %this1, i32 0, i32 2
  %0 = load ptr, ptr %m_info, align 8
  %tobool = icmp ne ptr %0, null
  br i1 %tobool, label %land.rhs, label %land.end

land.rhs:                                         ; preds = %entry
  %m_info2 = getelementptr inbounds %class.decl, ptr %this1, i32 0, i32 2
  %1 = load ptr, ptr %m_info2, align 8
  %2 = load i32, ptr %fid.addr, align 4
  %3 = load i32, ptr %k.addr, align 4
  %call = call noundef zeroext i1 @_ZNK9decl_info10is_decl_ofEii(ptr noundef nonnull align 8 dereferenceable(17) %1, i32 noundef %2, i32 noundef %3)
  br label %land.end

land.end:                                         ; preds = %land.rhs, %entry
  %4 = phi i1 [ false, %entry ], [ %call, %land.rhs ]
  ret i1 %4
}

; Function Attrs: mustprogress uwtable
define linkonce_odr hidden noundef zeroext i1 @_ZNK3app9is_app_ofEii(ptr noundef nonnull align 8 dereferenceable(32) %this, i32 noundef %fid, i32 noundef %k) #5 comdat align 2 {
entry:
  %this.addr = alloca ptr, align 8
  %fid.addr = alloca i32, align 4
  %k.addr = alloca i32, align 4
  store ptr %this, ptr %this.addr, align 8
  store i32 %fid, ptr %fid.addr, align 4
  store i32 %k, ptr %k.addr, align 4
  %this1 = load ptr, ptr %this.addr, align 8
  %m_decl = getelementptr inbounds %class.app, ptr %this1, i32 0, i32 1
  %0 = load ptr, ptr %m_decl, align 8
  %1 = load i32, ptr %fid.addr, align 4
  %2 = load i32, ptr %k.addr, align 4
  %call = call noundef zeroext i1 @_ZNK4decl10is_decl_ofEii(ptr noundef nonnull align 8 dereferenceable(32) %0, i32 noundef %1, i32 noundef %2)
  ret i1 %call
}

; Function Attrs: mustprogress nounwind uwtable
define linkonce_odr hidden noundef ptr @_Z6to_appPK3ast(ptr noundef %n) #4 comdat {
entry:
  %n.addr = alloca ptr, align 8
  store ptr %n, ptr %n.addr, align 8
  %0 = load ptr, ptr %n.addr, align 8
  ret ptr %0
}

; Function Attrs: mustprogress nounwind uwtable
define linkonce_odr hidden noundef i32 @_ZNK3ast8get_kindEv(ptr noundef nonnull align 4 dereferenceable(16) %this) #4 comdat align 2 {
entry:
  %this.addr = alloca ptr, align 8
  store ptr %this, ptr %this.addr, align 8
  %this1 = load ptr, ptr %this.addr, align 8
  %m_kind = getelementptr inbounds %class.ast, ptr %this1, i32 0, i32 1
  %bf.load = load i32, ptr %m_kind, align 4
  %bf.clear = and i32 %bf.load, 65535
  ret i32 %bf.clear
}

; Function Attrs: mustprogress uwtable
define linkonce_odr hidden noundef zeroext i1 @_ZNK17array_recognizers13is_complementEP4expr(ptr noundef nonnull align 4 dereferenceable(4) %this, ptr noundef %n) #5 comdat align 2 {
entry:
  %this.addr = alloca ptr, align 8
  %n.addr = alloca ptr, align 8
  store ptr %this, ptr %this.addr, align 8
  store ptr %n, ptr %n.addr, align 8
  %this1 = load ptr, ptr %this.addr, align 8
  %0 = load ptr, ptr %n.addr, align 8
  %m_fid = getelementptr inbounds %class.array_recognizers, ptr %this1, i32 0, i32 0
  %1 = load i32, ptr %m_fid, align 4
  %call = call noundef zeroext i1 @_Z9is_app_ofPK4exprii(ptr noundef %0, i32 noundef %1, i32 noundef 9)
  ret i1 %call
}

; Function Attrs: mustprogress uwtable
define linkonce_odr hidden noundef zeroext i1 @_ZNK17array_recognizers13is_differenceEP4expr(ptr noundef nonnull align 4 dereferenceable(4) %this, ptr noundef %n) #5 comdat align 2 {
entry:
  %this.addr = alloca ptr, align 8
  %n.addr = alloca ptr, align 8
  store ptr %this, ptr %this.addr, align 8
  store ptr %n, ptr %n.addr, align 8
  %this1 = load ptr, ptr %this.addr, align 8
  %0 = load ptr, ptr %n.addr, align 8
  %m_fid = getelementptr inbounds %class.array_recognizers, ptr %this1, i32 0, i32 0
  %1 = load i32, ptr %m_fid, align 4
  %call = call noundef zeroext i1 @_Z9is_app_ofPK4exprii(ptr noundef %0, i32 noundef %1, i32 noundef 8)
  ret i1 %call
}

; Function Attrs: mustprogress uwtable
define linkonce_odr hidden noundef zeroext i1 @_ZNK17array_recognizers12is_intersectEP4expr(ptr noundef nonnull align 4 dereferenceable(4) %this, ptr noundef %n) #5 comdat align 2 {
entry:
  %this.addr = alloca ptr, align 8
  %n.addr = alloca ptr, align 8
  store ptr %this, ptr %this.addr, align 8
  store ptr %n, ptr %n.addr, align 8
  %this1 = load ptr, ptr %this.addr, align 8
  %0 = load ptr, ptr %n.addr, align 8
  %m_fid = getelementptr inbounds %class.array_recognizers, ptr %this1, i32 0, i32 0
  %1 = load i32, ptr %m_fid, align 4
  %call = call noundef zeroext i1 @_Z9is_app_ofPK4exprii(ptr noundef %0, i32 noundef %1, i32 noundef 7)
  ret i1 %call
}

; Function Attrs: mustprogress uwtable
define linkonce_odr hidden noundef zeroext i1 @_ZNK17array_recognizers8is_unionEP4expr(ptr noundef nonnull align 4 dereferenceable(4) %this, ptr noundef %n) #5 comdat align 2 {
entry:
  %this.addr = alloca ptr, align 8
  %n.addr = alloca ptr, align 8
  store ptr %this, ptr %this.addr, align 8
  store ptr %n, ptr %n.addr, align 8
  %this1 = load ptr, ptr %this.addr, align 8
  %0 = load ptr, ptr %n.addr, align 8
  %m_fid = getelementptr inbounds %class.array_recognizers, ptr %this1, i32 0, i32 0
  %1 = load i32, ptr %m_fid, align 4
  %call = call noundef zeroext i1 @_Z9is_app_ofPK4exprii(ptr noundef %0, i32 noundef %1, i32 noundef 6)
  ret i1 %call
}

; Function Attrs: mustprogress uwtable
define linkonce_odr hidden noundef zeroext i1 @_ZNK17array_recognizers6is_mapEP4expr(ptr noundef nonnull align 4 dereferenceable(4) %this, ptr noundef %n) #5 comdat align 2 {
entry:
  %this.addr = alloca ptr, align 8
  %n.addr = alloca ptr, align 8
  store ptr %this, ptr %this.addr, align 8
  store ptr %n, ptr %n.addr, align 8
  %this1 = load ptr, ptr %this.addr, align 8
  %0 = load ptr, ptr %n.addr, align 8
  %m_fid = getelementptr inbounds %class.array_recognizers, ptr %this1, i32 0, i32 0
  %1 = load i32, ptr %m_fid, align 4
  %call = call noundef zeroext i1 @_Z9is_app_ofPK4exprii(ptr noundef %0, i32 noundef %1, i32 noundef 5)
  ret i1 %call
}

; Function Attrs: mustprogress uwtable
define linkonce_odr hidden noundef zeroext i1 @_Z9is_app_ofPK4exprii(ptr noundef %n, i32 noundef %fid, i32 noundef %k) #5 comdat {
entry:
  %n.addr = alloca ptr, align 8
  %fid.addr = alloca i32, align 4
  %k.addr = alloca i32, align 4
  store ptr %n, ptr %n.addr, align 8
  store i32 %fid, ptr %fid.addr, align 4
  store i32 %k, ptr %k.addr, align 4
  %0 = load ptr, ptr %n.addr, align 8
  %call = call noundef i32 @_ZNK3ast8get_kindEv(ptr noundef nonnull align 4 dereferenceable(16) %0)
  %cmp = icmp eq i32 %call, 0
  br i1 %cmp, label %land.rhs, label %land.end

land.rhs:                                         ; preds = %entry
  %1 = load ptr, ptr %n.addr, align 8
  %call1 = call noundef ptr @_Z6to_appPK3ast(ptr noundef %1)
  %2 = load i32, ptr %fid.addr, align 4
  %3 = load i32, ptr %k.addr, align 4
  %call2 = call noundef zeroext i1 @_ZNK3app9is_app_ofEii(ptr noundef nonnull align 8 dereferenceable(32) %call1, i32 noundef %2, i32 noundef %3)
  br label %land.end

land.end:                                         ; preds = %land.rhs, %entry
  %4 = phi i1 [ false, %entry ], [ %call2, %land.rhs ]
  ret i1 %4
}

; Function Attrs: mustprogress uwtable
define hidden noundef zeroext i1 @_ZNK5array6solver17is_map_combinatorEP4expr(ptr noundef nonnull align 8 dereferenceable(536) %this, ptr noundef %map) #5 align 2 {
entry:
  %this.addr = alloca ptr, align 8
  %map.addr = alloca ptr, align 8
  store ptr %this, ptr %this.addr, align 8
  store ptr %map, ptr %map.addr, align 8
  %this1 = load ptr, ptr %this.addr, align 8
  %a = getelementptr inbounds %"class.array::solver", ptr %this1, i32 0, i32 1
  %0 = load ptr, ptr %map.addr, align 8
  %call = call noundef zeroext i1 @_ZNK17array_recognizers6is_mapEP4expr(ptr noundef nonnull align 4 dereferenceable(4) %a, ptr noundef %0)
  br i1 %call, label %lor.end, label %lor.lhs.false

lor.lhs.false:                                    ; preds = %entry
  %a2 = getelementptr inbounds %"class.array::solver", ptr %this1, i32 0, i32 1
  %1 = load ptr, ptr %map.addr, align 8
  %call3 = call noundef zeroext i1 @_ZNK17array_recognizers8is_unionEP4expr(ptr noundef nonnull align 4 dereferenceable(4) %a2, ptr noundef %1)
  br i1 %call3, label %lor.end, label %lor.lhs.false4

lor.lhs.false4:                                   ; preds = %lor.lhs.false
  %a5 = getelementptr inbounds %"class.array::solver", ptr %this1, i32 0, i32 1
  %2 = load ptr, ptr %map.addr, align 8
  %call6 = call noundef zeroext i1 @_ZNK17array_recognizers12is_intersectEP4expr(ptr noundef nonnull align 4 dereferenceable(4) %a5, ptr noundef %2)
  br i1 %call6, label %lor.end, label %lor.lhs.false7

lor.lhs.false7:                                   ; preds = %lor.lhs.false4
  %a8 = getelementptr inbounds %"class.array::solver", ptr %this1, i32 0, i32 1
  %3 = load ptr, ptr %map.addr, align 8
  %call9 = call noundef zeroext i1 @_ZNK17array_recognizers13is_differenceEP4expr(ptr noundef nonnull align 4 dereferenceable(4) %a8, ptr noundef %3)
  br i1 %call9, label %lor.end, label %lor.rhs

lor.rhs:                                          ; preds = %lor.lhs.false7
  %a10 = getelementptr inbounds %"class.array::solver", ptr %this1, i32 0, i32 1
  %4 = load ptr, ptr %map.addr, align 8
  %call11 = call noundef zeroext i1 @_ZNK17array_recognizers13is_complementEP4expr(ptr noundef nonnull align 4 dereferenceable(4) %a10, ptr noundef %4)
  br label %lor.end

lor.end:                                          ; preds = %lor.rhs, %lor.lhs.false7, %lor.lhs.false4, %lor.lhs.false, %entry
  %5 = phi i1 [ true, %lor.lhs.false7 ], [ true, %lor.lhs.false4 ], [ true, %lor.lhs.false ], [ true, %entry ], [ %call11, %lor.rhs ]
  ret i1 %5
}

; Function Attrs: mustprogress uwtable
define linkonce_odr hidden noundef zeroext i1 @_ZNK17array_recognizers8is_storeEP4expr(ptr noundef nonnull align 4 dereferenceable(4) %this, ptr noundef %n) #5 comdat align 2 {
entry:
  %this.addr = alloca ptr, align 8
  %n.addr = alloca ptr, align 8
  store ptr %this, ptr %this.addr, align 8
  store ptr %n, ptr %n.addr, align 8
  %this1 = load ptr, ptr %this.addr, align 8
  %0 = load ptr, ptr %n.addr, align 8
  %m_fid = getelementptr inbounds %class.array_recognizers, ptr %this1, i32 0, i32 0
  %1 = load i32, ptr %m_fid, align 4
  %call = call noundef zeroext i1 @_Z9is_app_ofPK4exprii(ptr noundef %0, i32 noundef %1, i32 noundef 0)
  ret i1 %call
}

; Function Attrs: mustprogress nounwind uwtable
define linkonce_odr hidden noundef ptr @_Z6to_appP3ast(ptr noundef %n) #4 comdat {
entry:
  %n.addr = alloca ptr, align 8
  store ptr %n, ptr %n.addr, align 8
  %0 = load ptr, ptr %n.addr, align 8
  ret ptr %0
}

; Function Attrs: mustprogress uwtable
define linkonce_odr hidden noundef zeroext i1 @_ZNK17array_recognizers8is_constEP4expr(ptr noundef nonnull align 4 dereferenceable(4) %this, ptr noundef %n) #5 comdat align 2 {
entry:
  %this.addr = alloca ptr, align 8
  %n.addr = alloca ptr, align 8
  store ptr %this, ptr %this.addr, align 8
  store ptr %n, ptr %n.addr, align 8
  %this1 = load ptr, ptr %this.addr, align 8
  %0 = load ptr, ptr %n.addr, align 8
  %m_fid = getelementptr inbounds %class.array_recognizers, ptr %this1, i32 0, i32 0
  %1 = load i32, ptr %m_fid, align 4
  %call = call noundef zeroext i1 @_Z9is_app_ofPK4exprii(ptr noundef %0, i32 noundef %1, i32 noundef 2)
  ret i1 %call
}

; Function Attrs: mustprogress nounwind uwtable
define linkonce_odr hidden noundef ptr @_ZNK3euf5enode8get_exprEv(ptr noundef nonnull align 8 dereferenceable(176) %this) #4 comdat align 2 {
entry:
  %this.addr = alloca ptr, align 8
  store ptr %this, ptr %this.addr, align 8
  %this1 = load ptr, ptr %this.addr, align 8
  %m_expr = getelementptr inbounds %"class.euf::enode", ptr %this1, i32 0, i32 0
  %0 = load ptr, ptr %m_expr, align 8
  ret ptr %0
}

; Function Attrs: mustprogress uwtable
define hidden noundef zeroext i1 @_ZN5array6solver14assert_defaultERNS0_12axiom_recordE(ptr noundef nonnull align 8 dereferenceable(536) %this, ptr noundef nonnull align 8 dereferenceable(24) %r) #5 align 2 {
entry:
  %retval = alloca i1, align 1
  %this.addr = alloca ptr, align 8
  %r.addr = alloca ptr, align 8
  %child = alloca ptr, align 8
  store ptr %this, ptr %this.addr, align 8
  store ptr %r, ptr %r.addr, align 8
  %this1 = load ptr, ptr %this.addr, align 8
  %0 = load ptr, ptr %r.addr, align 8
  %n = getelementptr inbounds %"struct.array::solver::axiom_record", ptr %0, i32 0, i32 2
  %1 = load ptr, ptr %n, align 8
  %call = call noundef ptr @_ZNK3euf5enode8get_exprEv(ptr noundef nonnull align 8 dereferenceable(176) %1)
  store ptr %call, ptr %child, align 8
  %a = getelementptr inbounds %"class.array::solver", ptr %this1, i32 0, i32 1
  %2 = load ptr, ptr %child, align 8
  %call2 = call noundef zeroext i1 @_ZNK17array_recognizers8is_constEP4expr(ptr noundef nonnull align 4 dereferenceable(4) %a, ptr noundef %2)
  br i1 %call2, label %if.then, label %if.else

if.then:                                          ; preds = %entry
  %3 = load ptr, ptr %child, align 8
  %call3 = call noundef ptr @_Z6to_appP3ast(ptr noundef %3)
  %call4 = call noundef zeroext i1 @_ZN5array6solver26assert_default_const_axiomEP3app(ptr noundef nonnull align 8 dereferenceable(536) %this1, ptr noundef %call3)
  store i1 %call4, ptr %retval, align 1
  br label %return

if.else:                                          ; preds = %entry
  %a5 = getelementptr inbounds %"class.array::solver", ptr %this1, i32 0, i32 1
  %4 = load ptr, ptr %child, align 8
  %call6 = call noundef zeroext i1 @_ZNK17array_recognizers8is_storeEP4expr(ptr noundef nonnull align 4 dereferenceable(4) %a5, ptr noundef %4)
  br i1 %call6, label %if.then7, label %if.else10

if.then7:                                         ; preds = %if.else
  %5 = load ptr, ptr %child, align 8
  %call8 = call noundef ptr @_Z6to_appP3ast(ptr noundef %5)
  %call9 = call noundef zeroext i1 @_ZN5array6solver26assert_default_store_axiomEP3app(ptr noundef nonnull align 8 dereferenceable(536) %this1, ptr noundef %call8)
  store i1 %call9, ptr %retval, align 1
  br label %return

if.else10:                                        ; preds = %if.else
  %6 = load ptr, ptr %child, align 8
  %call11 = call noundef zeroext i1 @_ZNK5array6solver17is_map_combinatorEP4expr(ptr noundef nonnull align 8 dereferenceable(536) %this1, ptr noundef %6)
  br i1 %call11, label %if.then12, label %if.else15

if.then12:                                        ; preds = %if.else10
  %7 = load ptr, ptr %child, align 8
  %call13 = call noundef ptr @_Z6to_appP3ast(ptr noundef %7)
  %call14 = call noundef zeroext i1 @_ZN5array6solver24assert_default_map_axiomEP3app(ptr noundef nonnull align 8 dereferenceable(536) %this1, ptr noundef %call13)
  store i1 %call14, ptr %retval, align 1
  br label %return

if.else15:                                        ; preds = %if.else10
  store i1 false, ptr %retval, align 1
  br label %return

return:                                           ; preds = %if.else15, %if.then12, %if.then7, %if.then
  %8 = load i1, ptr %retval, align 1
  ret i1 %8
}