; Function Attrs: mustprogress uwtable
define hidden noundef zeroext i1 @_ZN5array6solver14assert_defaultERNS0_12axiom_recordE(ptr noundef nonnull align 8 dereferenceable(536) %this, ptr nocapture noundef nonnull readonly align 8 dereferenceable(24) %r) local_unnamed_addr #3 align 2 {
entry:
  %n = getelementptr inbounds i8, ptr %r, i64 8
  %0 = load ptr, ptr %n, align 8
  %1 = load ptr, ptr %0, align 8
  %a = getelementptr inbounds i8, ptr %this, i64 112
  %2 = load i32, ptr %a, align 8
  %m_kind.i.i.i = getelementptr inbounds i8, ptr %1, i64 4
  %bf.load.i.i.i = load i32, ptr %m_kind.i.i.i, align 4
  %bf.clear.i.i.i = and i32 %bf.load.i.i.i, 65535
  %cmp.i.i = icmp eq i32 %bf.clear.i.i.i, 0
  br i1 %cmp.i.i, label %land.rhs.i.i, label %return

land.rhs.i.i:                                     ; preds = %entry
  %m_decl.i.i.i = getelementptr inbounds i8, ptr %1, i64 16
  %3 = load ptr, ptr %m_decl.i.i.i, align 8
  %m_info.i.i.i.i = getelementptr inbounds i8, ptr %3, i64 24
  %4 = load ptr, ptr %m_info.i.i.i.i, align 8
  %tobool.not.i.i.i.i = icmp eq ptr %4, null
  br i1 %tobool.not.i.i.i.i, label %return, label %_ZNK17array_recognizers8is_constEP4expr.exit

_ZNK17array_recognizers8is_constEP4expr.exit:     ; preds = %land.rhs.i.i
  %5 = load i32, ptr %4, align 8
  %cmp.i.i.i.i.i = icmp eq i32 %5, %2
  %m_kind.i.i.i.i.i = getelementptr inbounds i8, ptr %4, i64 4
  %6 = load i32, ptr %m_kind.i.i.i.i.i, align 4
  %cmp2.i.i.i.i.i = icmp eq i32 %6, 2
  %7 = select i1 %cmp.i.i.i.i.i, i1 %cmp2.i.i.i.i.i, i1 false
  br i1 %7, label %if.then, label %_ZNK17array_recognizers8is_storeEP4expr.exit

if.then:                                          ; preds = %_ZNK17array_recognizers8is_constEP4expr.exit
  %call4 = tail call noundef zeroext i1 @_ZN5array6solver26assert_default_const_axiomEP3app(ptr noundef nonnull align 8 dereferenceable(536) %this, ptr noundef nonnull %1)
  br label %return

_ZNK17array_recognizers8is_storeEP4expr.exit:     ; preds = %_ZNK17array_recognizers8is_constEP4expr.exit
  %8 = load i32, ptr %4, align 8
  %cmp.i.i.i.i.i15 = icmp eq i32 %8, %2
  %m_kind.i.i.i.i.i16 = getelementptr inbounds i8, ptr %4, i64 4
  %9 = load i32, ptr %m_kind.i.i.i.i.i16, align 4
  %cmp2.i.i.i.i.i17 = icmp eq i32 %9, 0
  %10 = select i1 %cmp.i.i.i.i.i15, i1 %cmp2.i.i.i.i.i17, i1 false
  br i1 %10, label %if.then7, label %_ZNK17array_recognizers6is_mapEP4expr.exit.i

if.then7:                                         ; preds = %_ZNK17array_recognizers8is_storeEP4expr.exit
  %call9 = tail call noundef zeroext i1 @_ZN5array6solver26assert_default_store_axiomEP3app(ptr noundef nonnull align 8 dereferenceable(536) %this, ptr noundef nonnull %1)
  br label %return

_ZNK17array_recognizers6is_mapEP4expr.exit.i:     ; preds = %_ZNK17array_recognizers8is_storeEP4expr.exit
  %11 = load i32, ptr %4, align 8
  %cmp.i.i.i.i.i.i = icmp eq i32 %11, %2
  %m_kind.i.i.i.i.i.i = getelementptr inbounds i8, ptr %4, i64 4
  %12 = load i32, ptr %m_kind.i.i.i.i.i.i, align 4
  %13 = add i32 %12, -5
  %14 = icmp ult i32 %13, 5
  %or.cond24 = select i1 %cmp.i.i.i.i.i.i, i1 %14, i1 false
  br i1 %or.cond24, label %if.then12, label %return

if.then12:                                        ; preds = %_ZNK17array_recognizers6is_mapEP4expr.exit.i
  %call14 = tail call noundef zeroext i1 @_ZN5array6solver24assert_default_map_axiomEP3app(ptr noundef nonnull align 8 dereferenceable(536) %this, ptr noundef nonnull %1)
  br label %return

return:                                           ; preds = %land.rhs.i.i, %_ZNK17array_recognizers6is_mapEP4expr.exit.i, %entry, %if.then12, %if.then7, %if.then
  %retval.0 = phi i1 [ %call4, %if.then ], [ %call9, %if.then7 ], [ %call14, %if.then12 ], [ false, %entry ], [ false, %_ZNK17array_recognizers6is_mapEP4expr.exit.i ], [ false, %land.rhs.i.i ]
  ret i1 %retval.0
}